; Function Attrs: nounwind uwtable
define hidden range(i32 -2147483648, 2147466624) i32 @mbedtls_rsa_public(ptr noundef %0, ptr noundef %1, ptr noundef %2) local_unnamed_addr #0 {
  %4 = alloca %struct.mbedtls_mpi, align 8
  call void @llvm.lifetime.start.p0(i64 16, ptr nonnull %4) #14
  %5 = getelementptr inbounds nuw i8, ptr %0, i64 8
  %6 = load i64, ptr %5, align 8, !tbaa !12
  %7 = getelementptr inbounds nuw i8, ptr %0, i64 16
  %8 = tail call i64 @mbedtls_mpi_size(ptr noundef nonnull %7) #14
  %.not.i = icmp eq i64 %6, %8
  br i1 %.not.i, label %9, label %rsa_check_context.exit.thread

9:                                                ; preds = %3
  %10 = load i64, ptr %5, align 8, !tbaa !12
  %11 = icmp ugt i64 %10, 1024
  br i1 %11, label %rsa_check_context.exit.thread, label %12

12:                                               ; preds = %9
  %13 = tail call i32 @mbedtls_mpi_cmp_int(ptr noundef nonnull %7, i64 noundef 0) #14
  %14 = icmp slt i32 %13, 1
  br i1 %14, label %rsa_check_context.exit.thread, label %15

15:                                               ; preds = %12
  %16 = tail call i32 @mbedtls_mpi_get_bit(ptr noundef nonnull %7, i64 noundef 0) #14
  %17 = icmp eq i32 %16, 0
  br i1 %17, label %rsa_check_context.exit.thread, label %18

18:                                               ; preds = %15
  %19 = getelementptr inbounds nuw i8, ptr %0, i64 32
  %20 = tail call i32 @mbedtls_mpi_cmp_int(ptr noundef nonnull %19, i64 noundef 0) #14
  %21 = icmp slt i32 %20, 1
  br i1 %21, label %rsa_check_context.exit.thread, label %rsa_check_context.exit

rsa_check_context.exit:                           ; preds = %18
  call void @mbedtls_mpi_init(ptr noundef nonnull %4) #14
  %22 = load i64, ptr %5, align 8, !tbaa !12
  %23 = call i32 @mbedtls_mpi_read_binary(ptr noundef nonnull %4, ptr noundef %1, i64 noundef %22) #14
  %.not15 = icmp eq i32 %23, 0
  br i1 %.not15, label %24, label %.thread

24:                                               ; preds = %rsa_check_context.exit
  %25 = call i32 @mbedtls_mpi_cmp_mpi(ptr noundef nonnull %4, ptr noundef nonnull %7) #14
  %26 = icmp sgt i32 %25, -1
  br i1 %26, label %.thread, label %27

27:                                               ; preds = %24
  %28 = load i64, ptr %5, align 8, !tbaa !12
  %29 = getelementptr inbounds nuw i8, ptr %0, i64 144
  %30 = call i32 @mbedtls_mpi_exp_mod_unsafe(ptr noundef nonnull %4, ptr noundef nonnull %4, ptr noundef nonnull %19, ptr noundef nonnull %7, ptr noundef nonnull %29) #14
  %.not16 = icmp eq i32 %30, 0
  br i1 %.not16, label %31, label %.thread

.thread:                                          ; preds = %rsa_check_context.exit, %27, %24
  %.012.ph = phi i32 [ -4, %24 ], [ %30, %27 ], [ %23, %rsa_check_context.exit ]
  call void @mbedtls_mpi_free(ptr noundef nonnull %4) #14
  br label %33

31:                                               ; preds = %27
  %32 = call i32 @mbedtls_mpi_write_binary(ptr noundef nonnull %4, ptr noundef %2, i64 noundef %28) #14
  call void @mbedtls_mpi_free(ptr noundef nonnull %4) #14
  %.not17 = icmp eq i32 %32, 0
  br i1 %.not17, label %rsa_check_context.exit.thread, label %33

33:                                               ; preds = %.thread, %31
  %.01222 = phi i32 [ %.012.ph, %.thread ], [ %32, %31 ]
  %34 = add nsw i32 %.01222, -17024
  br label %rsa_check_context.exit.thread

rsa_check_context.exit.thread:                    ; preds = %18, %12, %15, %3, %9, %31, %33
  %.0 = phi i32 [ %34, %33 ], [ 0, %31 ], [ -16512, %9 ], [ -16512, %3 ], [ -16512, %15 ], [ -16512, %12 ], [ -16512, %18 ]
  call void @llvm.lifetime.end.p0(i64 16, ptr nonnull %4) #14
  ret i32 %.0
}